; Function Attrs: nounwind uwtable
define dso_local noundef ptr @list_insert_nth_int(ptr noundef %0, i32 noundef %1, i32 noundef %2) local_unnamed_addr #0 {
  %4 = icmp eq ptr %0, null
  br i1 %4, label %5, label %12

5:                                                ; preds = %3
  %.sroa.0.0.insert.ext = zext i32 %2 to i64
  %6 = inttoptr i64 %.sroa.0.0.insert.ext to ptr
  %7 = tail call ptr @palloc(i64 noundef 64) #9
  store i32 470, ptr %7, align 8
  %8 = getelementptr inbounds nuw i8, ptr %7, i64 4
  store i32 1, ptr %8, align 4
  %9 = getelementptr inbounds nuw i8, ptr %7, i64 8
  store i32 5, ptr %9, align 8
  %10 = getelementptr inbounds nuw i8, ptr %7, i64 24
  %11 = getelementptr inbounds nuw i8, ptr %7, i64 16
  store ptr %10, ptr %11, align 8
  store ptr %6, ptr %10, align 8
  br label %14

12:                                               ; preds = %3
  %13 = tail call fastcc ptr @insert_new_cell(ptr noundef %0, i32 noundef %1)
  store i32 %2, ptr %13, align 8
  br label %14

14:                                               ; preds = %12, %5
  %.0 = phi ptr [ %7, %5 ], [ %0, %12 ]
  ret ptr %.0
}